target datalayout = "e-m:e-p270:32:32-p271:32:32-p272:64:64-i64:64-i128:128-f80:128-n8:16:32:64-S128"
target triple = "x86_64-pc-linux-gnu"

%class.TreeNodeData = type <{ i32, i8, [3 x i8] }>
%class.OctNode = type { i64, ptr, ptr, %class.TreeNodeData }

; Function Attrs: mustprogress nounwind uwtable
define linkonce_odr noundef i32 @_ZN10BinaryNode11CornerIndexEiiii(i32 noundef %0, i32 noundef %1, i32 noundef %2, i32 noundef %3) #4 comdat align 2 {
  %5 = alloca i32, align 4
  %6 = alloca i32, align 4
  %7 = alloca i32, align 4
  %8 = alloca i32, align 4
  store i32 %0, ptr %5, align 4
  store i32 %1, ptr %6, align 4
  store i32 %2, ptr %7, align 4
  store i32 %3, ptr %8, align 4
  %9 = load i32, ptr %7, align 4
  %10 = load i32, ptr %8, align 4
  %11 = add nsw i32 %9, %10
  %12 = load i32, ptr %5, align 4
  %13 = load i32, ptr %6, align 4
  %14 = sub nsw i32 %12, %13
  %15 = shl i32 %11, %14
  ret i32 %15
}

; Function Attrs: mustprogress nounwind uwtable
define linkonce_odr void @_ZNK7OctNodeI12TreeNodeDataE14depthAndOffsetERiPi(ptr noundef nonnull align 8 dereferenceable(32) %0, ptr noundef nonnull align 4 dereferenceable(4) %1, ptr noundef %2) #4 comdat align 2 {
  %4 = alloca ptr, align 8
  %5 = alloca ptr, align 8
  %6 = alloca ptr, align 8
  store ptr %0, ptr %4, align 8
  store ptr %1, ptr %5, align 8
  store ptr %2, ptr %6, align 8
  %7 = load ptr, ptr %4, align 8
  %8 = getelementptr inbounds %class.OctNode, ptr %7, i32 0, i32 0
  %9 = load i64, ptr %8, align 8
  %10 = and i64 %9, 31
  %11 = trunc i64 %10 to i32
  %12 = load ptr, ptr %5, align 8
  store i32 %11, ptr %12, align 4
  %13 = getelementptr inbounds %class.OctNode, ptr %7, i32 0, i32 0
  %14 = load i64, ptr %13, align 8
  %15 = lshr i64 %14, 5
  %16 = and i64 %15, 524287
  %17 = trunc i64 %16 to i32
  %18 = load ptr, ptr %6, align 8
  %19 = getelementptr inbounds i32, ptr %18, i64 0
  store i32 %17, ptr %19, align 4
  %20 = getelementptr inbounds %class.OctNode, ptr %7, i32 0, i32 0
  %21 = load i64, ptr %20, align 8
  %22 = lshr i64 %21, 24
  %23 = and i64 %22, 524287
  %24 = trunc i64 %23 to i32
  %25 = load ptr, ptr %6, align 8
  %26 = getelementptr inbounds i32, ptr %25, i64 1
  store i32 %24, ptr %26, align 4
  %27 = getelementptr inbounds %class.OctNode, ptr %7, i32 0, i32 0
  %28 = load i64, ptr %27, align 8
  %29 = lshr i64 %28, 43
  %30 = and i64 %29, 524287
  %31 = trunc i64 %30 to i32
  %32 = load ptr, ptr %6, align 8
  %33 = getelementptr inbounds i32, ptr %32, i64 2
  store i32 %31, ptr %33, align 4
  ret void
}

; Function Attrs: mustprogress uwtable
define noundef i64 @_ZN10VertexData9FaceIndexEPK7OctNodeI12TreeNodeDataEiiPi(ptr noundef %0, i32 noundef %1, i32 noundef %2, ptr noundef %3) #5 align 2 {
  %5 = alloca ptr, align 8
  %6 = alloca i32, align 4
  %7 = alloca i32, align 4
  %8 = alloca ptr, align 8
  %9 = alloca i32, align 4
  %10 = alloca i32, align 4
  %11 = alloca i32, align 4
  %12 = alloca [3 x i32], align 4
  %13 = alloca i32, align 4
  store ptr %0, ptr %5, align 8
  store i32 %1, ptr %6, align 4
  store i32 %2, ptr %7, align 4
  store ptr %3, ptr %8, align 8
  %14 = load i32, ptr %6, align 4
  call void @_ZN4Cube15FactorFaceIndexEiRiS0_(i32 noundef %14, ptr noundef nonnull align 4 dereferenceable(4) %9, ptr noundef nonnull align 4 dereferenceable(4) %10)
  %15 = load ptr, ptr %5, align 8
  %16 = getelementptr inbounds [3 x i32], ptr %12, i64 0, i64 0
  call void @_ZNK7OctNodeI12TreeNodeDataE14depthAndOffsetERiPi(ptr noundef nonnull align 8 dereferenceable(32) %15, ptr noundef nonnull align 4 dereferenceable(4) %11, ptr noundef %16)
  store i32 0, ptr %13, align 4
  br label %17

17:                                               ; preds = %35, %4
  %18 = load i32, ptr %13, align 4
  %19 = icmp slt i32 %18, 3
  br i1 %19, label %20, label %38

20:                                               ; preds = %17
  %21 = load i32, ptr %7, align 4
  %22 = add nsw i32 %21, 1
  %23 = load i32, ptr %11, align 4
  %24 = add nsw i32 %23, 1
  %25 = load i32, ptr %13, align 4
  %26 = sext i32 %25 to i64
  %27 = getelementptr inbounds [3 x i32], ptr %12, i64 0, i64 %26
  %28 = load i32, ptr %27, align 4
  %29 = shl i32 %28, 1
  %30 = call noundef i32 @_ZN10BinaryNode11CornerIndexEiiii(i32 noundef %22, i32 noundef %24, i32 noundef %29, i32 noundef 1)
  %31 = load ptr, ptr %8, align 8
  %32 = load i32, ptr %13, align 4
  %33 = sext i32 %32 to i64
  %34 = getelementptr inbounds i32, ptr %31, i64 %33
  store i32 %30, ptr %34, align 4
  br label %35

35:                                               ; preds = %20
  %36 = load i32, ptr %13, align 4
  %37 = add nsw i32 %36, 1
  store i32 %37, ptr %13, align 4
  br label %17, !llvm.loop !15

38:                                               ; preds = %17
  %39 = load i32, ptr %7, align 4
  %40 = add nsw i32 %39, 1
  %41 = load i32, ptr %11, align 4
  %42 = load i32, ptr %9, align 4
  %43 = sext i32 %42 to i64
  %44 = getelementptr inbounds [3 x i32], ptr %12, i64 0, i64 %43
  %45 = load i32, ptr %44, align 4
  %46 = load i32, ptr %10, align 4
  %47 = call noundef i32 @_ZN10BinaryNode11CornerIndexEiiii(i32 noundef %40, i32 noundef %41, i32 noundef %45, i32 noundef %46)
  %48 = load ptr, ptr %8, align 8
  %49 = load i32, ptr %9, align 4
  %50 = sext i32 %49 to i64
  %51 = getelementptr inbounds i32, ptr %48, i64 %50
  store i32 %47, ptr %51, align 4
  %52 = load ptr, ptr %8, align 8
  %53 = getelementptr inbounds i32, ptr %52, i64 0
  %54 = load i32, ptr %53, align 4
  %55 = sext i32 %54 to i64
  %56 = load ptr, ptr %8, align 8
  %57 = getelementptr inbounds i32, ptr %56, i64 1
  %58 = load i32, ptr %57, align 4
  %59 = sext i32 %58 to i64
  %60 = shl i64 %59, 21
  %61 = or i64 %55, %60
  %62 = load ptr, ptr %8, align 8
  %63 = getelementptr inbounds i32, ptr %62, i64 2
  %64 = load i32, ptr %63, align 4
  %65 = sext i32 %64 to i64
  %66 = shl i64 %65, 42
  %67 = or i64 %61, %66
  ret i64 %67
}