; Function Attrs: mustprogress uwtable
define noundef i64 @_ZN10VertexData9FaceIndexEPK7OctNodeI12TreeNodeDataEiiPi(ptr nocapture noundef readonly %0, i32 noundef %1, i32 noundef %2, ptr nocapture noundef %3) local_unnamed_addr #9 align 2 {
  %5 = alloca i32, align 4
  %6 = alloca i32, align 4
  %7 = alloca [3 x i32], align 4
  call void @_ZN4Cube15FactorFaceIndexEiRiS0_(i32 noundef %1, ptr noundef nonnull align 4 dereferenceable(4) %5, ptr noundef nonnull align 4 dereferenceable(4) %6)
  %8 = load i64, ptr %0, align 8
  %9 = trunc i64 %8 to i32
  %10 = and i32 %9, 31
  %11 = lshr i32 %9, 5
  %12 = and i32 %11, 524287
  store i32 %12, ptr %7, align 4
  %13 = lshr i64 %8, 24
  %14 = trunc i64 %13 to i32
  %15 = and i32 %14, 524287
  %16 = getelementptr inbounds i8, ptr %7, i64 4
  store i32 %15, ptr %16, align 4
  %17 = lshr i64 %8, 43
  %18 = trunc i64 %17 to i32
  %19 = and i32 %18, 524287
  %20 = getelementptr inbounds i8, ptr %7, i64 8
  store i32 %19, ptr %20, align 4
  %21 = sub i32 %2, %10
  br label %22

22:                                               ; preds = %4, %22
  %indvars.iv = phi i64 [ 0, %4 ], [ %indvars.iv.next, %22 ]
  %23 = getelementptr inbounds [3 x i32], ptr %7, i64 0, i64 %indvars.iv
  %24 = load i32, ptr %23, align 4
  %25 = shl i32 %24, 1
  %26 = or disjoint i32 %25, 1
  %27 = shl i32 %26, %21
  %28 = getelementptr inbounds i32, ptr %3, i64 %indvars.iv
  store i32 %27, ptr %28, align 4
  %indvars.iv.next = add nuw nsw i64 %indvars.iv, 1
  %exitcond.not = icmp eq i64 %indvars.iv.next, 3
  br i1 %exitcond.not, label %29, label %22, !llvm.loop !14

29:                                               ; preds = %22
  %30 = add nsw i32 %2, 1
  %31 = load i32, ptr %5, align 4
  %32 = sext i32 %31 to i64
  %33 = getelementptr inbounds [3 x i32], ptr %7, i64 0, i64 %32
  %34 = load i32, ptr %33, align 4
  %35 = load i32, ptr %6, align 4
  %36 = add nsw i32 %35, %34
  %37 = sub i32 %30, %10
  %38 = shl i32 %36, %37
  %39 = getelementptr inbounds i32, ptr %3, i64 %32
  store i32 %38, ptr %39, align 4
  %40 = load i32, ptr %3, align 4
  %41 = sext i32 %40 to i64
  %42 = getelementptr inbounds i8, ptr %3, i64 4
  %43 = load i32, ptr %42, align 4
  %44 = sext i32 %43 to i64
  %45 = shl nsw i64 %44, 21
  %46 = or i64 %45, %41
  %47 = getelementptr inbounds i8, ptr %3, i64 8
  %48 = load i32, ptr %47, align 4
  %49 = zext i32 %48 to i64
  %50 = shl i64 %49, 42
  %51 = or i64 %46, %50
  ret i64 %51
}